; Function Attrs: nofree null_pointer_is_valid sspstrong uwtable
define internal void @de_emm_wus_assist_info_ue_paging_prob_fmt(ptr noundef %0, i32 noundef %1) #4 {
  %3 = icmp ult i32 %1, 20
  br i1 %3, label %4, label %7

4:                                                ; preds = %2
  %5 = mul nuw nsw i32 %1, 5
  %6 = tail call i32 (ptr, i64, i32, i64, ptr, ...) @__snprintf_chk(ptr noundef %0, i64 noundef 240, i32 noundef 2, i64 noundef -1, ptr noundef nonnull @.str.1357, i32 noundef %5, i32 noundef %1)
  br label %9

7:                                                ; preds = %2
  %8 = tail call i32 (ptr, i64, i32, i64, ptr, ...) @__snprintf_chk(ptr noundef %0, i64 noundef 240, i32 noundef 2, i64 noundef -1, ptr noundef nonnull @.str.1358, i32 noundef %1)
  br label %9

9:                                                ; preds = %7, %4
  ret void
}